; Function Attrs: nounwind uwtable
define internal fastcc ptr @uriParsePcharA(ptr noundef nonnull captures(none) %0, ptr noundef nonnull %1, ptr noundef nonnull %2, ptr noundef %3) unnamed_addr #0 {
  %.not = icmp ult ptr %1, %2
  br i1 %.not, label %10, label %5

5:                                                ; preds = %4
  %6 = load ptr, ptr %0, align 8, !tbaa !3
  %7 = tail call i32 @uriFreeUriMembersMmA(ptr noundef %6, ptr noundef %3)
  %8 = getelementptr inbounds nuw i8, ptr %0, i64 16
  store ptr %2, ptr %8, align 8, !tbaa !28
  %9 = getelementptr inbounds nuw i8, ptr %0, i64 8
  store i32 1, ptr %9, align 8, !tbaa !29
  br label %21

10:                                               ; preds = %4
  %11 = load i8, ptr %1, align 1, !tbaa !11
  switch i8 %11, label %16 [
    i8 37, label %12
    i8 58, label %14
    i8 64, label %14
    i8 33, label %14
    i8 36, label %14
    i8 38, label %14
    i8 40, label %14
    i8 41, label %14
    i8 42, label %14
    i8 44, label %14
    i8 59, label %14
    i8 39, label %14
    i8 43, label %14
    i8 61, label %14
    i8 45, label %14
    i8 46, label %14
    i8 95, label %14
    i8 126, label %14
    i8 48, label %14
    i8 49, label %14
    i8 50, label %14
    i8 51, label %14
    i8 52, label %14
    i8 53, label %14
    i8 54, label %14
    i8 55, label %14
    i8 56, label %14
    i8 57, label %14
    i8 65, label %14
    i8 66, label %14
    i8 67, label %14
    i8 68, label %14
    i8 69, label %14
    i8 70, label %14
    i8 97, label %14
    i8 98, label %14
    i8 99, label %14
    i8 100, label %14
    i8 101, label %14
    i8 102, label %14
    i8 103, label %14
    i8 71, label %14
    i8 104, label %14
    i8 72, label %14
    i8 105, label %14
    i8 73, label %14
    i8 106, label %14
    i8 74, label %14
    i8 107, label %14
    i8 75, label %14
    i8 108, label %14
    i8 76, label %14
    i8 109, label %14
    i8 77, label %14
    i8 110, label %14
    i8 78, label %14
    i8 111, label %14
    i8 79, label %14
    i8 112, label %14
    i8 80, label %14
    i8 113, label %14
    i8 81, label %14
    i8 114, label %14
    i8 82, label %14
    i8 115, label %14
    i8 83, label %14
    i8 116, label %14
    i8 84, label %14
    i8 117, label %14
    i8 85, label %14
    i8 118, label %14
    i8 86, label %14
    i8 119, label %14
    i8 87, label %14
    i8 120, label %14
    i8 88, label %14
    i8 121, label %14
    i8 89, label %14
    i8 122, label %14
    i8 90, label %14
  ]

12:                                               ; preds = %10
  %13 = tail call fastcc ptr @uriParsePctEncodedA(ptr noundef %0, ptr noundef %1, ptr noundef %2, ptr noundef %3)
  br label %21

14:                                               ; preds = %10, %10, %10, %10, %10, %10, %10, %10, %10, %10, %10, %10, %10, %10, %10, %10, %10, %10, %10, %10, %10, %10, %10, %10, %10, %10, %10, %10, %10, %10, %10, %10, %10, %10, %10, %10, %10, %10, %10, %10, %10, %10, %10, %10, %10, %10, %10, %10, %10, %10, %10, %10, %10, %10, %10, %10, %10, %10, %10, %10, %10, %10, %10, %10, %10, %10, %10, %10, %10, %10, %10, %10, %10, %10, %10, %10, %10, %10, %10
  %15 = getelementptr inbounds nuw i8, ptr %1, i64 1
  br label %21

16:                                               ; preds = %10
  %17 = load ptr, ptr %0, align 8, !tbaa !3
  %18 = tail call i32 @uriFreeUriMembersMmA(ptr noundef %17, ptr noundef %3)
  %19 = getelementptr inbounds nuw i8, ptr %0, i64 16
  store ptr %1, ptr %19, align 8, !tbaa !28
  %20 = getelementptr inbounds nuw i8, ptr %0, i64 8
  store i32 1, ptr %20, align 8, !tbaa !29
  br label %21

21:                                               ; preds = %16, %14, %12, %5
  %.0 = phi ptr [ null, %5 ], [ null, %16 ], [ %15, %14 ], [ %13, %12 ]
  ret ptr %.0
}